target datalayout = "e-m:e-p270:32:32-p271:32:32-p272:64:64-i64:64-i128:128-f80:128-n8:16:32:64-S128"
target triple = "x86_64-pc-linux-gnu"

; Function Attrs: nounwind uwtable
define dso_local i64 @bit_ffs_from_bit(ptr noundef %0, i64 noundef %1) #0 {
  %3 = alloca i64, align 8
  %4 = alloca ptr, align 8
  %5 = alloca i64, align 8
  %6 = alloca i64, align 8
  %7 = alloca i32, align 4
  %8 = alloca i64, align 8
  %9 = alloca i64, align 8
  %10 = alloca i32, align 4
  store ptr %0, ptr %4, align 8
  store i64 %1, ptr %5, align 8
  call void @llvm.lifetime.start.p0(i64 8, ptr %6) #12
  store i64 -1, ptr %6, align 8
  call void @llvm.lifetime.start.p0(i64 4, ptr %7) #12
  call void @llvm.lifetime.start.p0(i64 8, ptr %8) #12
  br label %11

11:                                               ; preds = %2
  br label %12

12:                                               ; preds = %11
  br label %13

13:                                               ; preds = %12
  %14 = load i64, ptr %5, align 8
  %15 = urem i64 %14, 64
  %16 = icmp ne i64 %15, 0
  br i1 %16, label %17, label %45

17:                                               ; preds = %13
  %18 = load i64, ptr %5, align 8
  %19 = load ptr, ptr %4, align 8
  %20 = getelementptr inbounds i64, ptr %19, i64 1
  %21 = load i64, ptr %20, align 8
  %22 = icmp slt i64 %18, %21
  br i1 %22, label %23, label %45

23:                                               ; preds = %17
  call void @llvm.lifetime.start.p0(i64 8, ptr %9) #12
  %24 = load i64, ptr %5, align 8
  %25 = and i64 %24, 63
  %26 = shl i64 1, %25
  %27 = sub nsw i64 %26, 1
  %28 = xor i64 %27, -1
  store i64 %28, ptr %9, align 8
  %29 = load i64, ptr %5, align 8
  %30 = urem i64 %29, 64
  %31 = load i64, ptr %5, align 8
  %32 = sub i64 %31, %30
  store i64 %32, ptr %5, align 8
  %33 = load i64, ptr %5, align 8
  %34 = ashr i64 %33, 6
  %35 = add nsw i64 %34, 2
  %36 = trunc i64 %35 to i32
  store i32 %36, ptr %7, align 4
  %37 = load ptr, ptr %4, align 8
  %38 = load i32, ptr %7, align 4
  %39 = sext i32 %38 to i64
  %40 = getelementptr inbounds i64, ptr %37, i64 %39
  %41 = load i64, ptr %40, align 8
  %42 = load i64, ptr %9, align 8
  %43 = and i64 %41, %42
  store i64 %43, ptr %8, align 8
  store i32 4, ptr %10, align 4
  call void @llvm.lifetime.end.p0(i64 8, ptr %9) #12
  %44 = load i32, ptr %10, align 4
  switch i32 %44, label %89 [
    i32 4, label %67
  ]

45:                                               ; preds = %17, %13
  br label %46

46:                                               ; preds = %73, %70, %45
  %47 = load i64, ptr %5, align 8
  %48 = load ptr, ptr %4, align 8
  %49 = getelementptr inbounds i64, ptr %48, i64 1
  %50 = load i64, ptr %49, align 8
  %51 = icmp slt i64 %47, %50
  br i1 %51, label %52, label %55

52:                                               ; preds = %46
  %53 = load i64, ptr %6, align 8
  %54 = icmp eq i64 %53, -1
  br label %55

55:                                               ; preds = %52, %46
  %56 = phi i1 [ false, %46 ], [ %54, %52 ]
  br i1 %56, label %57, label %80

57:                                               ; preds = %55
  %58 = load i64, ptr %5, align 8
  %59 = ashr i64 %58, 6
  %60 = add nsw i64 %59, 2
  %61 = trunc i64 %60 to i32
  store i32 %61, ptr %7, align 4
  %62 = load ptr, ptr %4, align 8
  %63 = load i32, ptr %7, align 4
  %64 = sext i32 %63 to i64
  %65 = getelementptr inbounds i64, ptr %62, i64 %64
  %66 = load i64, ptr %65, align 8
  store i64 %66, ptr %8, align 8
  br label %67

67:                                               ; preds = %57, %23
  %68 = load i64, ptr %8, align 8
  %69 = icmp eq i64 %68, 0
  br i1 %69, label %70, label %73

70:                                               ; preds = %67
  %71 = load i64, ptr %5, align 8
  %72 = add i64 %71, 64
  store i64 %72, ptr %5, align 8
  br label %46, !llvm.loop !43

73:                                               ; preds = %67
  %74 = load i64, ptr %5, align 8
  %75 = load i64, ptr %8, align 8
  %76 = call i64 @llvm.cttz.i64(i64 %75, i1 true)
  %77 = trunc i64 %76 to i32
  %78 = sext i32 %77 to i64
  %79 = add nsw i64 %74, %78
  store i64 %79, ptr %6, align 8
  br label %46, !llvm.loop !43

80:                                               ; preds = %55
  %81 = load i64, ptr %6, align 8
  %82 = load ptr, ptr %4, align 8
  %83 = getelementptr inbounds i64, ptr %82, i64 1
  %84 = load i64, ptr %83, align 8
  %85 = icmp slt i64 %81, %84
  br i1 %85, label %86, label %88

86:                                               ; preds = %80
  %87 = load i64, ptr %6, align 8
  store i64 %87, ptr %3, align 8
  store i32 1, ptr %10, align 4
  br label %89

88:                                               ; preds = %80
  store i64 -1, ptr %3, align 8
  store i32 1, ptr %10, align 4
  br label %89

89:                                               ; preds = %88, %86, %23
  call void @llvm.lifetime.end.p0(i64 8, ptr %8) #12
  call void @llvm.lifetime.end.p0(i64 4, ptr %7) #12
  call void @llvm.lifetime.end.p0(i64 8, ptr %6) #12
  %90 = load i64, ptr %3, align 8
  ret i64 %90
}

; Function Attrs: nounwind uwtable
define dso_local i64 @bit_ffs(ptr noundef %0) #0 {
  %2 = alloca ptr, align 8
  store ptr %0, ptr %2, align 8
  %3 = load ptr, ptr %2, align 8
  %4 = call i64 @bit_ffs_from_bit(ptr noundef %3, i64 noundef 0)
  ret i64 %4
}