; Function Attrs: nofree norecurse nosync nounwind memory(argmem: read) uwtable
define dso_local i64 @bit_ffs(ptr noundef readonly captures(none) %0) #3 {
  %.phi.trans.insert.i = getelementptr inbounds nuw i8, ptr %0, i64 8
  %.pre.i = load i64, ptr %.phi.trans.insert.i, align 8
  %2 = icmp sgt i64 %.pre.i, 0
  br i1 %2, label %.lr.ph, label %bit_ffs_from_bit.exit

.lr.ph:                                           ; preds = %1, %._crit_edge.i.outer
  %.127.i.ph6 = phi i64 [ %11, %._crit_edge.i.outer ], [ 0, %1 ]
  %3 = shl i64 %.127.i.ph6, 26
  %sext31.i = add i64 %3, 8589934592
  %4 = ashr exact i64 %sext31.i, 29
  %5 = getelementptr inbounds i8, ptr %0, i64 %4
  %6 = load i64, ptr %5, align 8
  %7 = icmp eq i64 %6, 0
  br i1 %7, label %._crit_edge.i.outer, label %.lr.ph.split

.lr.ph.split:                                     ; preds = %.lr.ph
  %8 = tail call range(i64 0, 65) i64 @llvm.cttz.i64(i64 %6, i1 true)
  %9 = or disjoint i64 %8, %.127.i.ph6
  %10 = icmp eq i64 %9, -1
  br i1 %10, label %._crit_edge.i, label %bit_ffs_from_bit.exit, !llvm.loop !16

._crit_edge.i:                                    ; preds = %.lr.ph.split, %._crit_edge.i
  br label %._crit_edge.i

._crit_edge.i.outer:                              ; preds = %.lr.ph
  %11 = add i64 %.127.i.ph6, 64
  %12 = icmp slt i64 %11, %.pre.i
  br i1 %12, label %.lr.ph, label %bit_ffs_from_bit.exit, !llvm.loop !16

bit_ffs_from_bit.exit:                            ; preds = %._crit_edge.i.outer, %.lr.ph.split, %1
  %.1.i.lcssa = phi i64 [ -1, %1 ], [ %9, %.lr.ph.split ], [ -1, %._crit_edge.i.outer ]
  %13 = icmp slt i64 %.1.i.lcssa, %.pre.i
  %.1..i = select i1 %13, i64 %.1.i.lcssa, i64 -1
  ret i64 %.1..i
}